; Function Attrs: mustprogress uwtable
define void @_ZN6icu_759UVector327setSizeEi(ptr nocapture noundef nonnull align 8 dereferenceable(32) %this, i32 noundef %newSize) local_unnamed_addr #1 align 2 {
entry:
  %cmp = icmp slt i32 %newSize, 0
  br i1 %cmp, label %return, label %if.end

if.end:                                           ; preds = %entry
  %count = getelementptr inbounds i8, ptr %this, i64 8
  %0 = load i32, ptr %count, align 8
  %cmp2 = icmp slt i32 %0, %newSize
  br i1 %cmp2, label %if.then3, label %if.end8

if.then3:                                         ; preds = %if.end
  %capacity.i = getelementptr inbounds i8, ptr %this, i64 12
  %1 = load i32, ptr %capacity.i, align 4
  %cmp2.not.i = icmp slt i32 %1, %newSize
  br i1 %cmp2.not.i, label %if.end6.i.i, label %if.end5

if.end6.i.i:                                      ; preds = %if.then3
  %maxCapacity.i.i = getelementptr inbounds i8, ptr %this, i64 16
  %2 = load i32, ptr %maxCapacity.i.i, align 8
  %cmp7.i.i = icmp sgt i32 %2, 0
  %cmp9.i.i = icmp slt i32 %2, %newSize
  %or.cond.i.i = and i1 %cmp7.i.i, %cmp9.i.i
  %cmp13.i.i = icmp sgt i32 %1, 1073741823
  %or.cond = or i1 %cmp13.i.i, %or.cond.i.i
  br i1 %or.cond, label %return, label %if.end15.i.i

if.end15.i.i:                                     ; preds = %if.end6.i.i
  %mul.i.i = shl nsw i32 %1, 1
  %spec.select.i.i = tail call i32 @llvm.smax.i32(i32 %mul.i.i, i32 %newSize)
  %3 = tail call i32 @llvm.smin.i32(i32 %spec.select.i.i, i32 %2)
  %newCap.1.i.i = select i1 %cmp7.i.i, i32 %3, i32 %spec.select.i.i
  %cmp28.i.i = icmp sgt i32 %newCap.1.i.i, 536870911
  br i1 %cmp28.i.i, label %return, label %if.end30.i.i

if.end30.i.i:                                     ; preds = %if.end15.i.i
  %elements.i.i = getelementptr inbounds i8, ptr %this, i64 24
  %4 = load ptr, ptr %elements.i.i, align 8
  %conv.i.i = zext nneg i32 %newCap.1.i.i to i64
  %mul31.i.i = shl nuw nsw i64 %conv.i.i, 2
  %call32.i.i = tail call ptr @uprv_realloc_75(ptr noundef %4, i64 noundef %mul31.i.i) #16
  %cmp33.i.i = icmp eq ptr %call32.i.i, null
  br i1 %cmp33.i.i, label %return, label %if.end35.i.i

if.end35.i.i:                                     ; preds = %if.end30.i.i
  store ptr %call32.i.i, ptr %elements.i.i, align 8
  store i32 %newCap.1.i.i, ptr %capacity.i, align 4
  %.pre = load i32, ptr %count, align 8
  br label %if.end5

if.end5:                                          ; preds = %if.end35.i.i, %if.then3
  %5 = phi i32 [ %.pre, %if.end35.i.i ], [ %0, %if.then3 ]
  %cmp79 = icmp slt i32 %5, %newSize
  br i1 %cmp79, label %for.body.lr.ph, label %if.end8

for.body.lr.ph:                                   ; preds = %if.end5
  %elements = getelementptr inbounds i8, ptr %this, i64 24
  %6 = sext i32 %5 to i64
  %wide.trip.count = zext nneg i32 %newSize to i64
  br label %for.body

for.body:                                         ; preds = %for.body.lr.ph, %for.body
  %indvars.iv = phi i64 [ %6, %for.body.lr.ph ], [ %indvars.iv.next, %for.body ]
  %7 = load ptr, ptr %elements, align 8
  %arrayidx = getelementptr inbounds i32, ptr %7, i64 %indvars.iv
  store i32 0, ptr %arrayidx, align 4
  %indvars.iv.next = add nsw i64 %indvars.iv, 1
  %exitcond.not = icmp eq i64 %indvars.iv.next, %wide.trip.count
  br i1 %exitcond.not, label %if.end8, label %for.body, !llvm.loop !4

if.end8:                                          ; preds = %for.body, %if.end5, %if.end
  store i32 %newSize, ptr %count, align 8
  br label %return

return:                                           ; preds = %if.end30.i.i, %if.end15.i.i, %if.end6.i.i, %entry, %if.end8
  ret void
}